; Function Attrs: inlinehint mustprogress nounwind uwtable
define internal void @"_ZNSt13__future_base11_Task_stateIZN11OpenImageIO6v3_1_09TIFFInput17read_native_tilesEiiiiiiiiPvE3$_0SaIiEFviEED0Ev"(ptr noundef nonnull align 8 dereferenceable(168) initializes((0, 8)) %0) unnamed_addr #3 align 2 personality ptr @__gxx_personality_v0 {
  store ptr getelementptr inbounds nuw inrange(-16, 56) (i8, ptr @_ZTVNSt13__future_base16_Task_state_baseIFviEEE, i64 16), ptr %0, align 8, !tbaa !24
  %2 = getelementptr inbounds nuw i8, ptr %0, i64 32
  %3 = load ptr, ptr %2, align 8, !tbaa !282
  %.not.i.i.i = icmp eq ptr %3, null
  br i1 %.not.i.i.i, label %_ZNSt10unique_ptrINSt13__future_base7_ResultIvEENS0_12_Result_base8_DeleterEED2Ev.exit.i.i, label %4

4:                                                ; preds = %1
  %5 = load ptr, ptr %3, align 8, !tbaa !24
  %6 = load ptr, ptr %5, align 8
  invoke void %6(ptr noundef nonnull align 8 dereferenceable(16) %3)
          to label %_ZNSt10unique_ptrINSt13__future_base7_ResultIvEENS0_12_Result_base8_DeleterEED2Ev.exit.i.i unwind label %7

7:                                                ; preds = %4
  %8 = landingpad { ptr, i32 }
          catch ptr null
  %9 = extractvalue { ptr, i32 } %8, 0
  tail call void @__clang_call_terminate(ptr %9) #37
  unreachable

_ZNSt10unique_ptrINSt13__future_base7_ResultIvEENS0_12_Result_base8_DeleterEED2Ev.exit.i.i: ; preds = %4, %1
  store ptr null, ptr %2, align 8, !tbaa !282
  store ptr getelementptr inbounds nuw inrange(-16, 32) (i8, ptr @_ZTVNSt13__future_base13_State_baseV2E, i64 16), ptr %0, align 8, !tbaa !24
  %10 = getelementptr inbounds nuw i8, ptr %0, i64 8
  %11 = load ptr, ptr %10, align 8, !tbaa !870
  %.not.i.i.i.i = icmp eq ptr %11, null
  br i1 %.not.i.i.i.i, label %"_ZNSt13__future_base11_Task_stateIZN11OpenImageIO6v3_1_09TIFFInput17read_native_tilesEiiiiiiiiPvE3$_0SaIiEFviEED2Ev.exit", label %12

12:                                               ; preds = %_ZNSt10unique_ptrINSt13__future_base7_ResultIvEENS0_12_Result_base8_DeleterEED2Ev.exit.i.i
  %13 = load ptr, ptr %11, align 8, !tbaa !24
  %14 = load ptr, ptr %13, align 8
  invoke void %14(ptr noundef nonnull align 8 dereferenceable(16) %11)
          to label %"_ZNSt13__future_base11_Task_stateIZN11OpenImageIO6v3_1_09TIFFInput17read_native_tilesEiiiiiiiiPvE3$_0SaIiEFviEED2Ev.exit" unwind label %15

15:                                               ; preds = %12
  %16 = landingpad { ptr, i32 }
          catch ptr null
  %17 = extractvalue { ptr, i32 } %16, 0
  tail call void @__clang_call_terminate(ptr %17) #37
  unreachable

"_ZNSt13__future_base11_Task_stateIZN11OpenImageIO6v3_1_09TIFFInput17read_native_tilesEiiiiiiiiPvE3$_0SaIiEFviEED2Ev.exit": ; preds = %_ZNSt10unique_ptrINSt13__future_base7_ResultIvEENS0_12_Result_base8_DeleterEED2Ev.exit.i.i, %12
  tail call void @_ZdlPvm(ptr noundef nonnull %0, i64 noundef 168) #36
  ret void
}